; ModuleID = 'source-C-CXX/44/88.c'
source_filename = "source-C-CXX/44/88.c"
target datalayout = "e-m:e-p270:32:32-p271:32:32-p272:64:64-i64:64-f80:128-n8:16:32:64-S128"
target triple = "x86_64-pc-linux-gnu"

@.str = private unnamed_addr constant [5 x i8] c"%s%s\00", align 1
@.str.1 = private unnamed_addr constant [4 x i8] c"%d\0A\00", align 1

; Function Attrs: nofree nounwind sspstrong uwtable
define dso_local i32 @main() local_unnamed_addr #0 {
  %1 = alloca [50 x i8], align 16
  %2 = alloca [50 x i8], align 16
  %3 = getelementptr inbounds [50 x i8], [50 x i8]* %1, i64 0, i64 0
  call void @llvm.lifetime.start.p0i8(i64 50, i8* nonnull %3) #4
  %4 = getelementptr inbounds [50 x i8], [50 x i8]* %2, i64 0, i64 0
  call void @llvm.lifetime.start.p0i8(i64 50, i8* nonnull %4) #4
  %5 = call i32 (i8*, ...) @__isoc99_scanf(i8* getelementptr inbounds ([5 x i8], [5 x i8]* @.str, i64 0, i64 0), i8* nonnull %3, i8* nonnull %4)
  %6 = call i64 @strlen(i8* noundef nonnull %4) #5
  %7 = trunc i64 %6 to i32
  %8 = icmp sgt i32 %7, 0
  br i1 %8, label %9, label %49

9:                                                ; preds = %0
  %10 = call i64 @strlen(i8* noundef nonnull %3) #5
  %11 = trunc i64 %10 to i32
  %12 = icmp eq i32 %11, 1
  br i1 %12, label %49, label %13

13:                                               ; preds = %9
  %14 = shl i64 %6, 32
  %15 = ashr exact i64 %14, 32
  %16 = add nsw i64 %15, 1
  br label %17

17:                                               ; preds = %13, %45
  %18 = phi i32 [ %47, %45 ], [ 0, %13 ]
  %19 = load i8, i8* %3, align 16, !tbaa !5
  %20 = sext i32 %18 to i64
  %21 = getelementptr inbounds [50 x i8], [50 x i8]* %2, i64 0, i64 %20
  %22 = load i8, i8* %21, align 1, !tbaa !5
  %23 = icmp eq i8 %19, %22
  br i1 %23, label %24, label %45

24:                                               ; preds = %17
  %25 = icmp slt i32 %18, %7
  br i1 %25, label %26, label %42

26:                                               ; preds = %24
  %27 = sub nsw i64 %16, %20
  br label %31

28:                                               ; preds = %31
  %29 = add nuw nsw i64 %32, 1
  %30 = icmp eq i64 %29, %27
  br i1 %30, label %42, label %31, !llvm.loop !8

31:                                               ; preds = %26, %28
  %32 = phi i64 [ 1, %26 ], [ %29, %28 ]
  %33 = phi i64 [ %20, %26 ], [ %36, %28 ]
  %34 = getelementptr inbounds [50 x i8], [50 x i8]* %1, i64 0, i64 %32
  %35 = load i8, i8* %34, align 1, !tbaa !5
  %36 = add nsw i64 %33, 1
  %37 = getelementptr inbounds [50 x i8], [50 x i8]* %2, i64 0, i64 %36
  %38 = load i8, i8* %37, align 1, !tbaa !5
  %39 = icmp eq i8 %35, %38
  br i1 %39, label %28, label %40

40:                                               ; preds = %31
  %41 = trunc i64 %33 to i32
  br label %42

42:                                               ; preds = %28, %40, %24
  %43 = phi i32 [ %18, %24 ], [ %41, %40 ], [ %7, %28 ]
  %44 = call i32 (i8*, ...) @printf(i8* nonnull dereferenceable(1) getelementptr inbounds ([4 x i8], [4 x i8]* @.str.1, i64 0, i64 0), i32 %18)
  br label %45

45:                                               ; preds = %17, %42
  %46 = phi i32 [ %43, %42 ], [ %18, %17 ]
  %47 = add nsw i32 %46, 1
  %48 = icmp slt i32 %47, %7
  br i1 %48, label %17, label %49, !llvm.loop !10

49:                                               ; preds = %45, %9, %0
  call void @llvm.lifetime.end.p0i8(i64 50, i8* nonnull %4) #4
  call void @llvm.lifetime.end.p0i8(i64 50, i8* nonnull %3) #4
  ret i32 0
}

; Function Attrs: argmemonly mustprogress nofree nosync nounwind willreturn
declare void @llvm.lifetime.start.p0i8(i64 immarg, i8* nocapture) #1

; Function Attrs: nofree nounwind
declare noundef i32 @__isoc99_scanf(i8* nocapture noundef readonly, ...) local_unnamed_addr #2

; Function Attrs: argmemonly mustprogress nofree nounwind readonly willreturn
declare i64 @strlen(i8* nocapture) local_unnamed_addr #3

; Function Attrs: nofree nounwind
declare noundef i32 @printf(i8* nocapture noundef readonly, ...) local_unnamed_addr #2

; Function Attrs: argmemonly mustprogress nofree nosync nounwind willreturn
declare void @llvm.lifetime.end.p0i8(i64 immarg, i8* nocapture) #1


!llvm.module.flags = !{!0, !1, !2, !3}
!llvm.ident = !{!4}

!0 = !{i32 1, !"wchar_size", i32 4}
!1 = !{i32 7, !"PIC Level", i32 2}
!2 = !{i32 7, !"PIE Level", i32 2}
!3 = !{i32 7, !"uwtable", i32 1}
!4 = !{!"clang version 13.0.0"}
!5 = !{!6, !6, i64 0}
!6 = !{!"omnipotent char", !7, i64 0}
!7 = !{!"Simple C/C++ TBAA"}
!8 = distinct !{!8, !9}
!9 = !{!"llvm.loop.mustprogress"}
!10 = distinct !{!10, !9}
